target datalayout = "e-m:e-p270:32:32-p271:32:32-p272:64:64-i64:64-i128:128-f80:128-n8:16:32:64-S128"
target triple = "x86_64-pc-linux-gnu"

@.str = private unnamed_addr constant [32 x i8] c"../openssl/crypto/rsa/rsa_pk1.c\00", align 1
@__func__.RSA_padding_add_PKCS1_type_1 = private unnamed_addr constant [29 x i8] c"RSA_padding_add_PKCS1_type_1\00", align 1

; Function Attrs: nounwind uwtable
define i32 @RSA_padding_add_PKCS1_type_1(ptr noundef %0, i32 noundef %1, ptr noundef %2, i32 noundef %3) #0 {
  %5 = alloca i32, align 4
  %6 = alloca ptr, align 8
  %7 = alloca i32, align 4
  %8 = alloca ptr, align 8
  %9 = alloca i32, align 4
  %10 = alloca i32, align 4
  %11 = alloca ptr, align 8
  %12 = alloca i32, align 4
  store ptr %0, ptr %6, align 8, !tbaa !3
  store i32 %1, ptr %7, align 4, !tbaa !8
  store ptr %2, ptr %8, align 8, !tbaa !3
  store i32 %3, ptr %9, align 4, !tbaa !8
  call void @llvm.lifetime.start.p0(i64 4, ptr %10) #6
  call void @llvm.lifetime.start.p0(i64 8, ptr %11) #6
  %13 = load i32, ptr %9, align 4, !tbaa !8
  %14 = load i32, ptr %7, align 4, !tbaa !8
  %15 = sub nsw i32 %14, 11
  %16 = icmp sgt i32 %13, %15
  br i1 %16, label %17, label %18

17:                                               ; preds = %4
  call void @ERR_new()
  call void @ERR_set_debug(ptr noundef @.str, i32 noundef 39, ptr noundef @__func__.RSA_padding_add_PKCS1_type_1)
  call void (i32, i32, ptr, ...) @ERR_set_error(i32 noundef 4, i32 noundef 110, ptr noundef null)
  store i32 0, ptr %5, align 4
  store i32 1, ptr %12, align 4
  br label %41

18:                                               ; preds = %4
  %19 = load ptr, ptr %6, align 8, !tbaa !3
  store ptr %19, ptr %11, align 8, !tbaa !3
  %20 = load ptr, ptr %11, align 8, !tbaa !3
  %21 = getelementptr inbounds nuw i8, ptr %20, i32 1
  store ptr %21, ptr %11, align 8, !tbaa !3
  store i8 0, ptr %20, align 1, !tbaa !10
  %22 = load ptr, ptr %11, align 8, !tbaa !3
  %23 = getelementptr inbounds nuw i8, ptr %22, i32 1
  store ptr %23, ptr %11, align 8, !tbaa !3
  store i8 1, ptr %22, align 1, !tbaa !10
  %24 = load i32, ptr %7, align 4, !tbaa !8
  %25 = sub nsw i32 %24, 3
  %26 = load i32, ptr %9, align 4, !tbaa !8
  %27 = sub nsw i32 %25, %26
  store i32 %27, ptr %10, align 4, !tbaa !8
  %28 = load ptr, ptr %11, align 8, !tbaa !3
  %29 = load i32, ptr %10, align 4, !tbaa !8
  %30 = sext i32 %29 to i64
  call void @llvm.memset.p0.i64(ptr align 1 %28, i8 -1, i64 %30, i1 false)
  %31 = load i32, ptr %10, align 4, !tbaa !8
  %32 = load ptr, ptr %11, align 8, !tbaa !3
  %33 = sext i32 %31 to i64
  %34 = getelementptr inbounds i8, ptr %32, i64 %33
  store ptr %34, ptr %11, align 8, !tbaa !3
  %35 = load ptr, ptr %11, align 8, !tbaa !3
  %36 = getelementptr inbounds nuw i8, ptr %35, i32 1
  store ptr %36, ptr %11, align 8, !tbaa !3
  store i8 0, ptr %35, align 1, !tbaa !10
  %37 = load ptr, ptr %11, align 8, !tbaa !3
  %38 = load ptr, ptr %8, align 8, !tbaa !3
  %39 = load i32, ptr %9, align 4, !tbaa !8
  %40 = zext i32 %39 to i64
  call void @llvm.memcpy.p0.p0.i64(ptr align 1 %37, ptr align 1 %38, i64 %40, i1 false)
  store i32 1, ptr %5, align 4
  store i32 1, ptr %12, align 4
  br label %41

41:                                               ; preds = %18, %17
  call void @llvm.lifetime.end.p0(i64 8, ptr %11) #6
  call void @llvm.lifetime.end.p0(i64 4, ptr %10) #6
  %42 = load i32, ptr %5, align 4
  ret i32 %42
}