; Function Attrs: nounwind uwtable
define range(i32 0, 2) i32 @RSA_padding_add_PKCS1_type_1(ptr noundef writeonly captures(none) %0, i32 noundef %1, ptr noundef readonly captures(none) %2, i32 noundef %3) local_unnamed_addr #0 {
  %5 = add nsw i32 %1, -11
  %6 = icmp sgt i32 %3, %5
  br i1 %6, label %7, label %8

7:                                                ; preds = %4
  tail call void @ERR_new() #5
  tail call void @ERR_set_debug(ptr noundef nonnull @.str, i32 noundef 39, ptr noundef nonnull @__func__.RSA_padding_add_PKCS1_type_1) #5
  tail call void (i32, i32, ptr, ...) @ERR_set_error(i32 noundef 4, i32 noundef 110, ptr noundef null) #5
  br label %17

8:                                                ; preds = %4
  %9 = getelementptr inbounds nuw i8, ptr %0, i64 1
  store i8 0, ptr %0, align 1, !tbaa !3
  %10 = getelementptr inbounds nuw i8, ptr %0, i64 2
  store i8 1, ptr %9, align 1, !tbaa !3
  %11 = add nsw i32 %1, -3
  %12 = sub i32 %11, %3
  %13 = sext i32 %12 to i64
  tail call void @llvm.memset.p0.i64(ptr nonnull align 1 %10, i8 -1, i64 %13, i1 false)
  %14 = getelementptr inbounds i8, ptr %10, i64 %13
  %15 = getelementptr inbounds nuw i8, ptr %14, i64 1
  store i8 0, ptr %14, align 1, !tbaa !3
  %16 = zext i32 %3 to i64
  tail call void @llvm.memcpy.p0.p0.i64(ptr nonnull align 1 %15, ptr align 1 %2, i64 %16, i1 false)
  br label %17

17:                                               ; preds = %8, %7
  %.0 = phi i32 [ 0, %7 ], [ 1, %8 ]
  ret i32 %.0
}